target datalayout = "e-m:e-p270:32:32-p271:32:32-p272:64:64-i64:64-i128:128-f80:128-n8:16:32:64-S128"
target triple = "x86_64-pc-linux-gnu"

; Function Attrs: nounwind uwtable
define internal void @lsp2poly(ptr noundef %0, ptr noundef %1, i32 noundef %2) #0 {
  %4 = alloca ptr, align 8
  %5 = alloca ptr, align 8
  %6 = alloca i32, align 4
  %7 = alloca i32, align 4
  %8 = alloca i32, align 4
  store ptr %0, ptr %4, align 8, !tbaa !37
  store ptr %1, ptr %5, align 8, !tbaa !4
  store i32 %2, ptr %6, align 4, !tbaa !9
  call void @llvm.lifetime.start.p0(i64 4, ptr %7) #3
  call void @llvm.lifetime.start.p0(i64 4, ptr %8) #3
  %9 = load ptr, ptr %4, align 8, !tbaa !37
  %10 = getelementptr inbounds i32, ptr %9, i64 0
  store i32 4194304, ptr %10, align 4, !tbaa !9
  %11 = load ptr, ptr %5, align 8, !tbaa !4
  %12 = getelementptr inbounds i16, ptr %11, i64 0
  %13 = load i16, ptr %12, align 2, !tbaa !11
  %14 = sext i16 %13 to i32
  %15 = sub nsw i32 0, %14
  %16 = mul nsw i32 %15, 256
  %17 = load ptr, ptr %4, align 8, !tbaa !37
  %18 = getelementptr inbounds i32, ptr %17, i64 1
  store i32 %16, ptr %18, align 4, !tbaa !9
  store i32 2, ptr %7, align 4, !tbaa !9
  br label %19

19:                                               ; preds = %89, %3
  %20 = load i32, ptr %7, align 4, !tbaa !9
  %21 = load i32, ptr %6, align 4, !tbaa !9
  %22 = icmp sle i32 %20, %21
  br i1 %22, label %23, label %92

23:                                               ; preds = %19
  %24 = load ptr, ptr %4, align 8, !tbaa !37
  %25 = load i32, ptr %7, align 4, !tbaa !9
  %26 = sub nsw i32 %25, 2
  %27 = sext i32 %26 to i64
  %28 = getelementptr inbounds i32, ptr %24, i64 %27
  %29 = load i32, ptr %28, align 4, !tbaa !9
  %30 = load ptr, ptr %4, align 8, !tbaa !37
  %31 = load i32, ptr %7, align 4, !tbaa !9
  %32 = sext i32 %31 to i64
  %33 = getelementptr inbounds i32, ptr %30, i64 %32
  store i32 %29, ptr %33, align 4, !tbaa !9
  %34 = load i32, ptr %7, align 4, !tbaa !9
  store i32 %34, ptr %8, align 4, !tbaa !9
  br label %35

35:                                               ; preds = %72, %23
  %36 = load i32, ptr %8, align 4, !tbaa !9
  %37 = icmp sgt i32 %36, 1
  br i1 %37, label %38, label %75

38:                                               ; preds = %35
  %39 = load ptr, ptr %4, align 8, !tbaa !37
  %40 = load i32, ptr %8, align 4, !tbaa !9
  %41 = sub nsw i32 %40, 1
  %42 = sext i32 %41 to i64
  %43 = getelementptr inbounds i32, ptr %39, i64 %42
  %44 = load i32, ptr %43, align 4, !tbaa !9
  %45 = sext i32 %44 to i64
  %46 = load ptr, ptr %5, align 8, !tbaa !4
  %47 = load i32, ptr %7, align 4, !tbaa !9
  %48 = mul nsw i32 2, %47
  %49 = sub nsw i32 %48, 2
  %50 = sext i32 %49 to i64
  %51 = getelementptr inbounds i16, ptr %46, i64 %50
  %52 = load i16, ptr %51, align 2, !tbaa !11
  %53 = sext i16 %52 to i64
  %54 = mul nsw i64 %45, %53
  %55 = ashr i64 %54, 14
  %56 = load ptr, ptr %4, align 8, !tbaa !37
  %57 = load i32, ptr %8, align 4, !tbaa !9
  %58 = sub nsw i32 %57, 2
  %59 = sext i32 %58 to i64
  %60 = getelementptr inbounds i32, ptr %56, i64 %59
  %61 = load i32, ptr %60, align 4, !tbaa !9
  %62 = sext i32 %61 to i64
  %63 = sub nsw i64 %55, %62
  %64 = load ptr, ptr %4, align 8, !tbaa !37
  %65 = load i32, ptr %8, align 4, !tbaa !9
  %66 = sext i32 %65 to i64
  %67 = getelementptr inbounds i32, ptr %64, i64 %66
  %68 = load i32, ptr %67, align 4, !tbaa !9
  %69 = sext i32 %68 to i64
  %70 = sub nsw i64 %69, %63
  %71 = trunc i64 %70 to i32
  store i32 %71, ptr %67, align 4, !tbaa !9
  br label %72

72:                                               ; preds = %38
  %73 = load i32, ptr %8, align 4, !tbaa !9
  %74 = add nsw i32 %73, -1
  store i32 %74, ptr %8, align 4, !tbaa !9
  br label %35, !llvm.loop !39

75:                                               ; preds = %35
  %76 = load ptr, ptr %5, align 8, !tbaa !4
  %77 = load i32, ptr %7, align 4, !tbaa !9
  %78 = mul nsw i32 2, %77
  %79 = sub nsw i32 %78, 2
  %80 = sext i32 %79 to i64
  %81 = getelementptr inbounds i16, ptr %76, i64 %80
  %82 = load i16, ptr %81, align 2, !tbaa !11
  %83 = sext i16 %82 to i32
  %84 = mul nsw i32 %83, 256
  %85 = load ptr, ptr %4, align 8, !tbaa !37
  %86 = getelementptr inbounds i32, ptr %85, i64 1
  %87 = load i32, ptr %86, align 4, !tbaa !9
  %88 = sub nsw i32 %87, %84
  store i32 %88, ptr %86, align 4, !tbaa !9
  br label %89

89:                                               ; preds = %75
  %90 = load i32, ptr %7, align 4, !tbaa !9
  %91 = add nsw i32 %90, 1
  store i32 %91, ptr %7, align 4, !tbaa !9
  br label %19, !llvm.loop !40

92:                                               ; preds = %19
  call void @llvm.lifetime.end.p0(i64 4, ptr %8) #3
  call void @llvm.lifetime.end.p0(i64 4, ptr %7) #3
  ret void
}

; Function Attrs: nounwind uwtable
define internal void @acelp_lsp2lpc(ptr noundef %0, ptr noundef %1, i32 noundef %2) #0 {
  %4 = alloca ptr, align 8
  %5 = alloca ptr, align 8
  %6 = alloca i32, align 4
  %7 = alloca i32, align 4
  %8 = alloca [11 x i32], align 16
  %9 = alloca [11 x i32], align 16
  %10 = alloca i32, align 4
  %11 = alloca i32, align 4
  store ptr %0, ptr %4, align 8, !tbaa !4
  store ptr %1, ptr %5, align 8, !tbaa !4
  store i32 %2, ptr %6, align 4, !tbaa !9
  call void @llvm.lifetime.start.p0(i64 4, ptr %7) #3
  call void @llvm.lifetime.start.p0(i64 44, ptr %8) #3
  call void @llvm.lifetime.start.p0(i64 44, ptr %9) #3
  %12 = getelementptr inbounds [11 x i32], ptr %8, i64 0, i64 0
  %13 = load ptr, ptr %5, align 8, !tbaa !4
  %14 = load i32, ptr %6, align 4, !tbaa !9
  call void @lsp2poly(ptr noundef %12, ptr noundef %13, i32 noundef %14)
  %15 = getelementptr inbounds [11 x i32], ptr %9, i64 0, i64 0
  %16 = load ptr, ptr %5, align 8, !tbaa !4
  %17 = getelementptr inbounds i16, ptr %16, i64 1
  %18 = load i32, ptr %6, align 4, !tbaa !9
  call void @lsp2poly(ptr noundef %15, ptr noundef %17, i32 noundef %18)
  %19 = load ptr, ptr %4, align 8, !tbaa !4
  %20 = getelementptr inbounds i16, ptr %19, i64 0
  store i16 4096, ptr %20, align 2, !tbaa !11
  store i32 1, ptr %7, align 4, !tbaa !9
  br label %21

21:                                               ; preds = %71, %3
  %22 = load i32, ptr %7, align 4, !tbaa !9
  %23 = load i32, ptr %6, align 4, !tbaa !9
  %24 = add nsw i32 %23, 1
  %25 = icmp slt i32 %22, %24
  br i1 %25, label %26, label %74

26:                                               ; preds = %21
  call void @llvm.lifetime.start.p0(i64 4, ptr %10) #3
  %27 = load i32, ptr %7, align 4, !tbaa !9
  %28 = sext i32 %27 to i64
  %29 = getelementptr inbounds [11 x i32], ptr %8, i64 0, i64 %28
  %30 = load i32, ptr %29, align 4, !tbaa !9
  %31 = load i32, ptr %7, align 4, !tbaa !9
  %32 = sub nsw i32 %31, 1
  %33 = sext i32 %32 to i64
  %34 = getelementptr inbounds [11 x i32], ptr %8, i64 0, i64 %33
  %35 = load i32, ptr %34, align 4, !tbaa !9
  %36 = add nsw i32 %30, %35
  store i32 %36, ptr %10, align 4, !tbaa !9
  call void @llvm.lifetime.start.p0(i64 4, ptr %11) #3
  %37 = load i32, ptr %7, align 4, !tbaa !9
  %38 = sext i32 %37 to i64
  %39 = getelementptr inbounds [11 x i32], ptr %9, i64 0, i64 %38
  %40 = load i32, ptr %39, align 4, !tbaa !9
  %41 = load i32, ptr %7, align 4, !tbaa !9
  %42 = sub nsw i32 %41, 1
  %43 = sext i32 %42 to i64
  %44 = getelementptr inbounds [11 x i32], ptr %9, i64 0, i64 %43
  %45 = load i32, ptr %44, align 4, !tbaa !9
  %46 = sub nsw i32 %40, %45
  store i32 %46, ptr %11, align 4, !tbaa !9
  %47 = load i32, ptr %10, align 4, !tbaa !9
  %48 = add nsw i32 %47, 1024
  store i32 %48, ptr %10, align 4, !tbaa !9
  %49 = load i32, ptr %10, align 4, !tbaa !9
  %50 = load i32, ptr %11, align 4, !tbaa !9
  %51 = add nsw i32 %49, %50
  %52 = ashr i32 %51, 11
  %53 = trunc i32 %52 to i16
  %54 = load ptr, ptr %4, align 8, !tbaa !4
  %55 = load i32, ptr %7, align 4, !tbaa !9
  %56 = sext i32 %55 to i64
  %57 = getelementptr inbounds i16, ptr %54, i64 %56
  store i16 %53, ptr %57, align 2, !tbaa !11
  %58 = load i32, ptr %10, align 4, !tbaa !9
  %59 = load i32, ptr %11, align 4, !tbaa !9
  %60 = sub nsw i32 %58, %59
  %61 = ashr i32 %60, 11
  %62 = trunc i32 %61 to i16
  %63 = load ptr, ptr %4, align 8, !tbaa !4
  %64 = load i32, ptr %6, align 4, !tbaa !9
  %65 = shl i32 %64, 1
  %66 = add nsw i32 %65, 1
  %67 = load i32, ptr %7, align 4, !tbaa !9
  %68 = sub nsw i32 %66, %67
  %69 = sext i32 %68 to i64
  %70 = getelementptr inbounds i16, ptr %63, i64 %69
  store i16 %62, ptr %70, align 2, !tbaa !11
  call void @llvm.lifetime.end.p0(i64 4, ptr %11) #3
  call void @llvm.lifetime.end.p0(i64 4, ptr %10) #3
  br label %71

71:                                               ; preds = %26
  %72 = load i32, ptr %7, align 4, !tbaa !9
  %73 = add nsw i32 %72, 1
  store i32 %73, ptr %7, align 4, !tbaa !9
  br label %21, !llvm.loop !33

74:                                               ; preds = %21
  call void @llvm.lifetime.end.p0(i64 44, ptr %9) #3
  call void @llvm.lifetime.end.p0(i64 44, ptr %8) #3
  call void @llvm.lifetime.end.p0(i64 4, ptr %7) #3
  ret void
}