; Function Attrs: nofree norecurse nosync nounwind memory(argmem: readwrite) uwtable
define internal fastcc void @acelp_lsp2lpc(ptr noundef writeonly captures(none) %0, ptr noundef readonly captures(none) %1, i32 noundef range(i32 -1073741824, 1073741824) %2) unnamed_addr #0 {
  %4 = alloca [11 x i32], align 16
  %5 = alloca [11 x i32], align 16
  call void @llvm.lifetime.start.p0(i64 44, ptr nonnull %4) #4
  call void @llvm.lifetime.start.p0(i64 44, ptr nonnull %5) #4
  store i32 4194304, ptr %4, align 16, !tbaa !23
  %6 = load i16, ptr %1, align 2, !tbaa !4
  %7 = sext i16 %6 to i32
  %.neg.i = mul nsw i32 %7, -256
  %8 = getelementptr inbounds nuw i8, ptr %4, i64 4
  store i32 %.neg.i, ptr %8, align 4, !tbaa !23
  %invariant.gep.i = getelementptr i8, ptr %1, i64 -4
  %.not29.i = icmp slt i32 %2, 2
  br i1 %.not29.i, label %lsp2poly.exit.thread, label %.lr.ph.preheader.i

lsp2poly.exit.thread:                             ; preds = %3
  %9 = getelementptr inbounds nuw i8, ptr %1, i64 2
  store i32 4194304, ptr %5, align 16, !tbaa !23
  %10 = load i16, ptr %9, align 2, !tbaa !4
  %11 = sext i16 %10 to i32
  %.neg.i2135 = mul nsw i32 %11, -256
  %12 = getelementptr inbounds nuw i8, ptr %5, i64 4
  store i32 %.neg.i2135, ptr %12, align 4, !tbaa !23
  br label %lsp2poly.exit34

.lr.ph.preheader.i:                               ; preds = %3
  %13 = add nuw nsw i32 %2, 1
  %wide.trip.count.i = zext nneg i32 %13 to i64
  br label %.lr.ph.i

.lr.ph.i:                                         ; preds = %33, %.lr.ph.preheader.i
  %indvars.iv.i = phi i64 [ 2, %.lr.ph.preheader.i ], [ %indvars.iv.next.i, %33 ]
  %14 = getelementptr i32, ptr %4, i64 %indvars.iv.i
  %15 = getelementptr i8, ptr %14, i64 -8
  %16 = load i32, ptr %15, align 4, !tbaa !23
  store i32 %16, ptr %14, align 4, !tbaa !23
  %gep.idx.i = shl i64 %indvars.iv.i, 2
  %gep.i = getelementptr i8, ptr %invariant.gep.i, i64 %gep.idx.i
  %17 = load i16, ptr %gep.i, align 2, !tbaa !4
  %18 = sext i16 %17 to i64
  br label %19

19:                                               ; preds = %19, %.lr.ph.i
  %indvars.iv31.i = phi i64 [ %indvars.iv.i, %.lr.ph.i ], [ %indvars.iv.next32.i, %19 ]
  %20 = getelementptr i32, ptr %4, i64 %indvars.iv31.i
  %21 = getelementptr i8, ptr %20, i64 -4
  %22 = load i32, ptr %21, align 4, !tbaa !23
  %23 = sext i32 %22 to i64
  %24 = mul nsw i64 %23, %18
  %25 = lshr i64 %24, 14
  %26 = getelementptr i8, ptr %20, i64 -8
  %27 = load i32, ptr %26, align 4, !tbaa !23
  %28 = load i32, ptr %20, align 4, !tbaa !23
  %29 = trunc i64 %25 to i32
  %30 = add i32 %28, %27
  %31 = sub i32 %30, %29
  store i32 %31, ptr %20, align 4, !tbaa !23
  %indvars.iv.next32.i = add nsw i64 %indvars.iv31.i, -1
  %32 = icmp sgt i64 %indvars.iv31.i, 2
  br i1 %32, label %19, label %33, !llvm.loop !25

33:                                               ; preds = %19
  %34 = sext i16 %17 to i32
  %35 = shl nsw i32 %34, 8
  %36 = load i32, ptr %8, align 4, !tbaa !23
  %37 = sub nsw i32 %36, %35
  store i32 %37, ptr %8, align 4, !tbaa !23
  %indvars.iv.next.i = add nuw nsw i64 %indvars.iv.i, 1
  %exitcond.not.i = icmp eq i64 %indvars.iv.next.i, %wide.trip.count.i
  br i1 %exitcond.not.i, label %lsp2poly.exit, label %.lr.ph.i, !llvm.loop !26

lsp2poly.exit:                                    ; preds = %33
  %38 = getelementptr inbounds nuw i8, ptr %1, i64 2
  store i32 4194304, ptr %5, align 16, !tbaa !23
  %39 = load i16, ptr %38, align 2, !tbaa !4
  %40 = sext i16 %39 to i32
  %.neg.i21 = mul nsw i32 %40, -256
  %41 = getelementptr inbounds nuw i8, ptr %5, i64 4
  store i32 %.neg.i21, ptr %41, align 4, !tbaa !23
  %invariant.gep.i22 = getelementptr i8, ptr %1, i64 -2
  br label %.lr.ph.i26

.lr.ph.i26:                                       ; preds = %61, %lsp2poly.exit
  %indvars.iv.i27 = phi i64 [ 2, %lsp2poly.exit ], [ %indvars.iv.next.i32, %61 ]
  %42 = getelementptr i32, ptr %5, i64 %indvars.iv.i27
  %43 = getelementptr i8, ptr %42, i64 -8
  %44 = load i32, ptr %43, align 4, !tbaa !23
  store i32 %44, ptr %42, align 4, !tbaa !23
  %gep.idx.i28 = shl i64 %indvars.iv.i27, 2
  %gep.i29 = getelementptr i8, ptr %invariant.gep.i22, i64 %gep.idx.i28
  %45 = load i16, ptr %gep.i29, align 2, !tbaa !4
  %46 = sext i16 %45 to i64
  br label %47

47:                                               ; preds = %47, %.lr.ph.i26
  %indvars.iv31.i30 = phi i64 [ %indvars.iv.i27, %.lr.ph.i26 ], [ %indvars.iv.next32.i31, %47 ]
  %48 = getelementptr i32, ptr %5, i64 %indvars.iv31.i30
  %49 = getelementptr i8, ptr %48, i64 -4
  %50 = load i32, ptr %49, align 4, !tbaa !23
  %51 = sext i32 %50 to i64
  %52 = mul nsw i64 %51, %46
  %53 = lshr i64 %52, 14
  %54 = getelementptr i8, ptr %48, i64 -8
  %55 = load i32, ptr %54, align 4, !tbaa !23
  %56 = load i32, ptr %48, align 4, !tbaa !23
  %57 = trunc i64 %53 to i32
  %58 = add i32 %56, %55
  %59 = sub i32 %58, %57
  store i32 %59, ptr %48, align 4, !tbaa !23
  %indvars.iv.next32.i31 = add nsw i64 %indvars.iv31.i30, -1
  %60 = icmp sgt i64 %indvars.iv31.i30, 2
  br i1 %60, label %47, label %61, !llvm.loop !25

61:                                               ; preds = %47
  %62 = sext i16 %45 to i32
  %63 = shl nsw i32 %62, 8
  %64 = load i32, ptr %41, align 4, !tbaa !23
  %65 = sub nsw i32 %64, %63
  store i32 %65, ptr %41, align 4, !tbaa !23
  %indvars.iv.next.i32 = add nuw nsw i64 %indvars.iv.i27, 1
  %exitcond.not.i33 = icmp eq i64 %indvars.iv.next.i32, %wide.trip.count.i
  br i1 %exitcond.not.i33, label %lsp2poly.exit34, label %.lr.ph.i26, !llvm.loop !26

lsp2poly.exit34:                                  ; preds = %61, %lsp2poly.exit.thread
  store i16 4096, ptr %0, align 2, !tbaa !4
  %.not38 = icmp slt i32 %2, 1
  br i1 %.not38, label %._crit_edge, label %.lr.ph

.lr.ph:                                           ; preds = %lsp2poly.exit34
  %66 = shl nuw nsw i32 %2, 1
  %67 = or disjoint i32 %66, 1
  %68 = zext nneg i32 %67 to i64
  %69 = add nuw nsw i32 %2, 1
  %wide.trip.count = zext nneg i32 %69 to i64
  %.pre = load i32, ptr %4, align 16, !tbaa !23
  %.pre41 = load i32, ptr %5, align 16, !tbaa !23
  br label %70

70:                                               ; preds = %.lr.ph, %70
  %71 = phi i32 [ %.pre41, %.lr.ph ], [ %76, %70 ]
  %72 = phi i32 [ %.pre, %.lr.ph ], [ %74, %70 ]
  %indvars.iv = phi i64 [ 1, %.lr.ph ], [ %indvars.iv.next, %70 ]
  %73 = getelementptr inbounds nuw [11 x i32], ptr %4, i64 0, i64 %indvars.iv
  %74 = load i32, ptr %73, align 4, !tbaa !23
  %75 = getelementptr inbounds nuw [11 x i32], ptr %5, i64 0, i64 %indvars.iv
  %76 = load i32, ptr %75, align 4, !tbaa !23
  %77 = sub nsw i32 %76, %71
  %78 = add i32 %74, 1024
  %79 = add i32 %78, %72
  %80 = add nsw i32 %77, %79
  %81 = lshr i32 %80, 11
  %82 = trunc i32 %81 to i16
  %83 = getelementptr inbounds nuw i16, ptr %0, i64 %indvars.iv
  store i16 %82, ptr %83, align 2, !tbaa !4
  %84 = sub nsw i32 %79, %77
  %85 = lshr i32 %84, 11
  %86 = trunc i32 %85 to i16
  %87 = sub nsw i64 %68, %indvars.iv
  %88 = getelementptr inbounds i16, ptr %0, i64 %87
  store i16 %86, ptr %88, align 2, !tbaa !4
  %indvars.iv.next = add nuw nsw i64 %indvars.iv, 1
  %exitcond.not = icmp eq i64 %indvars.iv.next, %wide.trip.count
  br i1 %exitcond.not, label %._crit_edge, label %70, !llvm.loop !27

._crit_edge:                                      ; preds = %70, %lsp2poly.exit34
  call void @llvm.lifetime.end.p0(i64 44, ptr nonnull %5) #4
  call void @llvm.lifetime.end.p0(i64 44, ptr nonnull %4) #4
  ret void
}